target datalayout = "e-m:e-p270:32:32-p271:32:32-p272:64:64-i64:64-i128:128-f80:128-n8:16:32:64-S128"
target triple = "x86_64-pc-linux-gnu"

%struct.codepair = type { i16, i16 }

; Function Attrs: nounwind uwtable
define hidden i32 @_glfwKeySym2Unicode(i32 noundef %0) #0 {
  %2 = alloca i32, align 4
  %3 = alloca i32, align 4
  %4 = alloca i32, align 4
  %5 = alloca i32, align 4
  %6 = alloca i32, align 4
  %7 = alloca i32, align 4
  store i32 %0, ptr %3, align 4, !tbaa !3
  call void @llvm.lifetime.start.p0(i64 4, ptr %4) #2
  store i32 0, ptr %4, align 4, !tbaa !3
  call void @llvm.lifetime.start.p0(i64 4, ptr %5) #2
  store i32 827, ptr %5, align 4, !tbaa !3
  call void @llvm.lifetime.start.p0(i64 4, ptr %6) #2
  %8 = load i32, ptr %3, align 4, !tbaa !3
  %9 = icmp uge i32 %8, 32
  br i1 %9, label %10, label %13

10:                                               ; preds = %1
  %11 = load i32, ptr %3, align 4, !tbaa !3
  %12 = icmp ule i32 %11, 126
  br i1 %12, label %19, label %13

13:                                               ; preds = %10, %1
  %14 = load i32, ptr %3, align 4, !tbaa !3
  %15 = icmp uge i32 %14, 160
  br i1 %15, label %16, label %21

16:                                               ; preds = %13
  %17 = load i32, ptr %3, align 4, !tbaa !3
  %18 = icmp ule i32 %17, 255
  br i1 %18, label %19, label %21

19:                                               ; preds = %16, %10
  %20 = load i32, ptr %3, align 4, !tbaa !3
  store i32 %20, ptr %2, align 4
  store i32 1, ptr %7, align 4
  br label %71

21:                                               ; preds = %16, %13
  %22 = load i32, ptr %3, align 4, !tbaa !3
  %23 = and i32 %22, -16777216
  %24 = icmp eq i32 %23, 16777216
  br i1 %24, label %25, label %28

25:                                               ; preds = %21
  %26 = load i32, ptr %3, align 4, !tbaa !3
  %27 = and i32 %26, 16777215
  store i32 %27, ptr %2, align 4
  store i32 1, ptr %7, align 4
  br label %71

28:                                               ; preds = %21
  br label %29

29:                                               ; preds = %69, %28
  %30 = load i32, ptr %5, align 4, !tbaa !3
  %31 = load i32, ptr %4, align 4, !tbaa !3
  %32 = icmp sge i32 %30, %31
  br i1 %32, label %33, label %70

33:                                               ; preds = %29
  %34 = load i32, ptr %4, align 4, !tbaa !3
  %35 = load i32, ptr %5, align 4, !tbaa !3
  %36 = add nsw i32 %34, %35
  %37 = sdiv i32 %36, 2
  store i32 %37, ptr %6, align 4, !tbaa !3
  %38 = load i32, ptr %6, align 4, !tbaa !3
  %39 = sext i32 %38 to i64
  %40 = getelementptr inbounds [828 x %struct.codepair], ptr @keysymtab, i64 0, i64 %39
  %41 = getelementptr inbounds nuw %struct.codepair, ptr %40, i32 0, i32 0
  %42 = load i16, ptr %41, align 4, !tbaa !7
  %43 = zext i16 %42 to i32
  %44 = load i32, ptr %3, align 4, !tbaa !3
  %45 = icmp ult i32 %43, %44
  br i1 %45, label %46, label %49

46:                                               ; preds = %33
  %47 = load i32, ptr %6, align 4, !tbaa !3
  %48 = add nsw i32 %47, 1
  store i32 %48, ptr %4, align 4, !tbaa !3
  br label %69

49:                                               ; preds = %33
  %50 = load i32, ptr %6, align 4, !tbaa !3
  %51 = sext i32 %50 to i64
  %52 = getelementptr inbounds [828 x %struct.codepair], ptr @keysymtab, i64 0, i64 %51
  %53 = getelementptr inbounds nuw %struct.codepair, ptr %52, i32 0, i32 0
  %54 = load i16, ptr %53, align 4, !tbaa !7
  %55 = zext i16 %54 to i32
  %56 = load i32, ptr %3, align 4, !tbaa !3
  %57 = icmp ugt i32 %55, %56
  br i1 %57, label %58, label %61

58:                                               ; preds = %49
  %59 = load i32, ptr %6, align 4, !tbaa !3
  %60 = sub nsw i32 %59, 1
  store i32 %60, ptr %5, align 4, !tbaa !3
  br label %68

61:                                               ; preds = %49
  %62 = load i32, ptr %6, align 4, !tbaa !3
  %63 = sext i32 %62 to i64
  %64 = getelementptr inbounds [828 x %struct.codepair], ptr @keysymtab, i64 0, i64 %63
  %65 = getelementptr inbounds nuw %struct.codepair, ptr %64, i32 0, i32 1
  %66 = load i16, ptr %65, align 2, !tbaa !10
  %67 = zext i16 %66 to i32
  store i32 %67, ptr %2, align 4
  store i32 1, ptr %7, align 4
  br label %71

68:                                               ; preds = %58
  br label %69

69:                                               ; preds = %68, %46
  br label %29

70:                                               ; preds = %29
  store i32 -1, ptr %2, align 4
  store i32 1, ptr %7, align 4
  br label %71

71:                                               ; preds = %70, %61, %25, %19
  call void @llvm.lifetime.end.p0(i64 4, ptr %6) #2
  call void @llvm.lifetime.end.p0(i64 4, ptr %5) #2
  call void @llvm.lifetime.end.p0(i64 4, ptr %4) #2
  %72 = load i32, ptr %2, align 4
  ret i32 %72
}