; Function Attrs: nofree norecurse nosync nounwind memory(none) uwtable
define hidden range(i32 -1, 16777216) i32 @_glfwKeySym2Unicode(i32 noundef %0) local_unnamed_addr #0 {
  %2 = add i32 %0, -32
  %or.cond = icmp ult i32 %2, 95
  %3 = add i32 %0, -160
  %or.cond3 = icmp ult i32 %3, 96
  %or.cond27 = or i1 %or.cond, %or.cond3
  br i1 %or.cond27, label %.loopexit, label %4

4:                                                ; preds = %1
  %5 = and i32 %0, -16777216
  %6 = icmp eq i32 %5, 16777216
  br i1 %6, label %7, label %.preheader

7:                                                ; preds = %4
  %8 = and i32 %0, 16777215
  br label %.loopexit

.preheader:                                       ; preds = %4, %26
  %.02230 = phi i32 [ %.1, %26 ], [ 827, %4 ]
  %.02329 = phi i32 [ %.124, %26 ], [ 0, %4 ]
  %9 = add nsw i32 %.02230, %.02329
  %10 = sdiv i32 %9, 2
  %11 = sext i32 %10 to i64
  %12 = getelementptr inbounds [828 x %struct.codepair], ptr @keysymtab, i64 0, i64 %11
  %13 = load i16, ptr %12, align 4, !tbaa !3
  %14 = zext i16 %13 to i32
  %15 = icmp ugt i32 %0, %14
  br i1 %15, label %16, label %18

16:                                               ; preds = %.preheader
  %17 = add nsw i32 %10, 1
  br label %26

18:                                               ; preds = %.preheader
  %19 = icmp samesign ult i32 %0, %14
  br i1 %19, label %20, label %22

20:                                               ; preds = %18
  %21 = add nsw i32 %10, -1
  br label %26

22:                                               ; preds = %18
  %23 = getelementptr inbounds [828 x %struct.codepair], ptr @keysymtab, i64 0, i64 %11, i32 1
  %24 = load i16, ptr %23, align 2, !tbaa !8
  %25 = zext i16 %24 to i32
  br label %.loopexit

26:                                               ; preds = %20, %16
  %.124 = phi i32 [ %17, %16 ], [ %.02329, %20 ]
  %.1 = phi i32 [ %.02230, %16 ], [ %21, %20 ]
  %.not = icmp slt i32 %.1, %.124
  br i1 %.not, label %.loopexit, label %.preheader

.loopexit:                                        ; preds = %26, %1, %22, %7
  %.0 = phi i32 [ %8, %7 ], [ %25, %22 ], [ %0, %1 ], [ -1, %26 ]
  ret i32 %.0
}